; Function Attrs: mustprogress uwtable
define void @_ZNK4lean11environment3getERKNS_4nameE(ptr dead_on_unwind noalias writable sret(%"class.lean::constant_info") align 8 %0, ptr noundef nonnull align 8 dereferenceable(8) %1, ptr noundef nonnull align 8 dereferenceable(8) %2) local_unnamed_addr #0 align 2 personality ptr @__gxx_personality_v0 {
  %4 = load ptr, ptr %1, align 8, !tbaa !3
  %5 = ptrtoint ptr %4 to i64
  %6 = and i64 %5, 1
  %.not.i.i = icmp eq i64 %6, 0
  br i1 %.not.i.i, label %7, label %_ZNK4lean10object_ref10to_obj_argEv.exit

7:                                                ; preds = %3
  %.val.i.i.i = load i32, ptr %4, align 4, !tbaa !8
  %8 = icmp sgt i32 %.val.i.i.i, 0
  br i1 %8, label %9, label %11, !prof !11

9:                                                ; preds = %7
  %10 = add nuw nsw i32 %.val.i.i.i, 1
  store i32 %10, ptr %4, align 4, !tbaa !8
  br label %_ZNK4lean10object_ref10to_obj_argEv.exit

11:                                               ; preds = %7
  %.not.i.i.i = icmp eq i32 %.val.i.i.i, 0
  br i1 %.not.i.i.i, label %_ZNK4lean10object_ref10to_obj_argEv.exit, label %12

12:                                               ; preds = %11
  tail call void @lean_inc_ref_cold(ptr noundef nonnull %4)
  %.pre.i = load ptr, ptr %1, align 8, !tbaa !3
  br label %_ZNK4lean10object_ref10to_obj_argEv.exit

_ZNK4lean10object_ref10to_obj_argEv.exit:         ; preds = %3, %9, %11, %12
  %13 = phi ptr [ %4, %3 ], [ %4, %9 ], [ %4, %11 ], [ %.pre.i, %12 ]
  %14 = load ptr, ptr %2, align 8, !tbaa !3
  %15 = ptrtoint ptr %14 to i64
  %16 = and i64 %15, 1
  %.not.i.i10 = icmp eq i64 %16, 0
  br i1 %.not.i.i10, label %17, label %_ZNK4lean10object_ref10to_obj_argEv.exit14

17:                                               ; preds = %_ZNK4lean10object_ref10to_obj_argEv.exit
  %.val.i.i.i11 = load i32, ptr %14, align 4, !tbaa !8
  %18 = icmp sgt i32 %.val.i.i.i11, 0
  br i1 %18, label %19, label %21, !prof !11

19:                                               ; preds = %17
  %20 = add nuw nsw i32 %.val.i.i.i11, 1
  store i32 %20, ptr %14, align 4, !tbaa !8
  br label %_ZNK4lean10object_ref10to_obj_argEv.exit14

21:                                               ; preds = %17
  %.not.i.i.i12 = icmp eq i32 %.val.i.i.i11, 0
  br i1 %.not.i.i.i12, label %_ZNK4lean10object_ref10to_obj_argEv.exit14, label %22

22:                                               ; preds = %21
  tail call void @lean_inc_ref_cold(ptr noundef nonnull %14)
  %.pre.i13 = load ptr, ptr %2, align 8, !tbaa !3
  br label %_ZNK4lean10object_ref10to_obj_argEv.exit14

_ZNK4lean10object_ref10to_obj_argEv.exit14:       ; preds = %_ZNK4lean10object_ref10to_obj_argEv.exit, %19, %21, %22
  %23 = phi ptr [ %14, %_ZNK4lean10object_ref10to_obj_argEv.exit ], [ %14, %19 ], [ %14, %21 ], [ %.pre.i13, %22 ]
  %24 = tail call ptr @lean_environment_find(ptr noundef %13, ptr noundef %23)
  %25 = ptrtoint ptr %24 to i64
  %26 = and i64 %25, 1
  %.not = icmp eq i64 %26, 0
  br i1 %.not, label %32, label %27

27:                                               ; preds = %_ZNK4lean10object_ref10to_obj_argEv.exit14
  %28 = tail call ptr @__cxa_allocate_exception(i64 56) #20
  invoke void @_ZN4lean26unknown_constant_exceptionC2ERKNS_11environmentERKNS_4nameE(ptr noundef nonnull align 8 dereferenceable(56) %28, ptr noundef nonnull align 8 dereferenceable(8) %1, ptr noundef nonnull align 8 dereferenceable(8) %2)
          to label %29 unwind label %30

29:                                               ; preds = %27
  tail call void @__cxa_throw(ptr nonnull %28, ptr nonnull @_ZTIN4lean26unknown_constant_exceptionE, ptr nonnull @_ZN4lean26unknown_constant_exceptionD2Ev) #24
  unreachable

30:                                               ; preds = %27
  %31 = landingpad { ptr, i32 }
          cleanup
  tail call void @__cxa_free_exception(ptr nonnull %28) #20
  br label %51

32:                                               ; preds = %_ZNK4lean10object_ref10to_obj_argEv.exit14
  %33 = getelementptr inbounds nuw i8, ptr %24, i64 8
  %34 = load ptr, ptr %33, align 8, !tbaa !24
  store ptr %34, ptr %0, align 8, !tbaa !3
  %35 = ptrtoint ptr %34 to i64
  %36 = and i64 %35, 1
  %.not.i.i.i15 = icmp eq i64 %36, 0
  br i1 %.not.i.i.i15, label %37, label %_ZN4lean13constant_infoC2EP11lean_objectb.exit

37:                                               ; preds = %32
  %.val.i.i.i.i = load i32, ptr %34, align 4, !tbaa !8
  %38 = icmp sgt i32 %.val.i.i.i.i, 0
  br i1 %38, label %39, label %41, !prof !11

39:                                               ; preds = %37
  %40 = add nuw nsw i32 %.val.i.i.i.i, 1
  store i32 %40, ptr %34, align 4, !tbaa !8
  br label %_ZN4lean13constant_infoC2EP11lean_objectb.exit

41:                                               ; preds = %37
  %.not.i.i.i.i = icmp eq i32 %.val.i.i.i.i, 0
  br i1 %.not.i.i.i.i, label %_ZN4lean13constant_infoC2EP11lean_objectb.exit, label %42

42:                                               ; preds = %41
  tail call void @lean_inc_ref_cold(ptr noundef nonnull %34)
  br label %_ZN4lean13constant_infoC2EP11lean_objectb.exit

_ZN4lean13constant_infoC2EP11lean_objectb.exit:   ; preds = %42, %41, %39, %32
  %43 = load i32, ptr %24, align 4, !tbaa !8
  %44 = icmp sgt i32 %43, 1
  br i1 %44, label %45, label %47, !prof !11

45:                                               ; preds = %_ZN4lean13constant_infoC2EP11lean_objectb.exit
  %46 = add nsw i32 %43, -1
  store i32 %46, ptr %24, align 4, !tbaa !8
  br label %_ZN4lean3decEP11lean_object.exit

47:                                               ; preds = %_ZN4lean13constant_infoC2EP11lean_objectb.exit
  %.not.i.i16 = icmp eq i32 %43, 0
  br i1 %.not.i.i16, label %_ZN4lean3decEP11lean_object.exit, label %48

48:                                               ; preds = %47
  invoke void @lean_dec_ref_cold(ptr noundef nonnull %24)
          to label %_ZN4lean3decEP11lean_object.exit unwind label %49

49:                                               ; preds = %48
  %50 = landingpad { ptr, i32 }
          cleanup
  tail call void @_ZN4lean10object_refD2Ev(ptr noundef nonnull align 8 dereferenceable(8) %0) #20
  br label %51

_ZN4lean3decEP11lean_object.exit:                 ; preds = %47, %45, %48
  ret void

51:                                               ; preds = %49, %30
  %.pn = phi { ptr, i32 } [ %31, %30 ], [ %50, %49 ]
  resume { ptr, i32 } %.pn
}